(dp1
S'id'
p2
(dp3
S'type'
p4
g2
sS'sortable'
p5
I1
sS'sql'
p6
S'INT AUTO_INCREMENT NOT NULL'
p7
ssS'end_date'
p8
(dp9
g4
S'datetime'
p10
sg5
I3
sg6
S'DATETIME'
p11
ssS'start_date'
p12
(dp13
g4
g10
sg5
I2
sg6
S'DATETIME'
p14
ss.